; ModuleID = '33/3026.c'
source_filename = "33/3026.c"
target datalayout = "e-m:e-p270:32:32-p271:32:32-p272:64:64-i64:64-f80:128-n8:16:32:64-S128"
target triple = "x86_64-pc-linux-gnu"

@.str = private unnamed_addr constant [3 x i8] c"%d\00", align 1
@.str.1 = private unnamed_addr constant [3 x i8] c"%s\00", align 1
@.str.2 = private unnamed_addr constant [4 x i8] c"%s\0A\00", align 1

; Function Attrs: noinline nounwind uwtable
define dso_local i32 @main() #0 {
  %1 = alloca i32, align 4
  %2 = alloca i32, align 4
  %3 = alloca i32, align 4
  %4 = alloca i32, align 4
  %5 = alloca [1000 x [260 x i8]], align 16
  %6 = alloca [1000 x [260 x i8]], align 16
  store i32 0, i32* %1, align 4
  %7 = call i32 (i8*, ...) @__isoc99_scanf(i8* getelementptr inbounds ([3 x i8], [3 x i8]* @.str, i64 0, i64 0), i32* %3)
  store i32 0, i32* %2, align 4
  br label %8

8:                                                ; preds = %17, %0
  %9 = load i32, i32* %2, align 4
  %10 = load i32, i32* %3, align 4
  %11 = icmp slt i32 %9, %10
  br i1 %11, label %12, label %20

12:                                               ; preds = %8
  %13 = load i32, i32* %2, align 4
  %14 = sext i32 %13 to i64
  %15 = getelementptr inbounds [1000 x [260 x i8]], [1000 x [260 x i8]]* %5, i64 0, i64 %14
  %16 = call i32 (i8*, ...) @__isoc99_scanf(i8* getelementptr inbounds ([3 x i8], [3 x i8]* @.str.1, i64 0, i64 0), [260 x i8]* %15)
  br label %17

17:                                               ; preds = %12
  %18 = load i32, i32* %2, align 4
  %19 = add nsw i32 %18, 1
  store i32 %19, i32* %2, align 4
  br label %8

20:                                               ; preds = %8
  store i32 0, i32* %2, align 4
  br label %21

21:                                               ; preds = %112, %20
  %22 = load i32, i32* %2, align 4
  %23 = load i32, i32* %3, align 4
  %24 = icmp slt i32 %22, %23
  br i1 %24, label %25, label %115

25:                                               ; preds = %21
  store i32 0, i32* %4, align 4
  br label %26

26:                                               ; preds = %108, %25
  %27 = load i32, i32* %2, align 4
  %28 = sext i32 %27 to i64
  %29 = getelementptr inbounds [1000 x [260 x i8]], [1000 x [260 x i8]]* %5, i64 0, i64 %28
  %30 = load i32, i32* %4, align 4
  %31 = sext i32 %30 to i64
  %32 = getelementptr inbounds [260 x i8], [260 x i8]* %29, i64 0, i64 %31
  %33 = load i8, i8* %32, align 1
  %34 = sext i8 %33 to i32
  %35 = icmp ne i32 %34, 0
  br i1 %35, label %36, label %111

36:                                               ; preds = %26
  %37 = load i32, i32* %2, align 4
  %38 = sext i32 %37 to i64
  %39 = getelementptr inbounds [1000 x [260 x i8]], [1000 x [260 x i8]]* %5, i64 0, i64 %38
  %40 = load i32, i32* %4, align 4
  %41 = sext i32 %40 to i64
  %42 = getelementptr inbounds [260 x i8], [260 x i8]* %39, i64 0, i64 %41
  %43 = load i8, i8* %42, align 1
  %44 = sext i8 %43 to i32
  %45 = icmp eq i32 %44, 65
  br i1 %45, label %46, label %53

46:                                               ; preds = %36
  %47 = load i32, i32* %2, align 4
  %48 = sext i32 %47 to i64
  %49 = getelementptr inbounds [1000 x [260 x i8]], [1000 x [260 x i8]]* %6, i64 0, i64 %48
  %50 = load i32, i32* %4, align 4
  %51 = sext i32 %50 to i64
  %52 = getelementptr inbounds [260 x i8], [260 x i8]* %49, i64 0, i64 %51
  store i8 84, i8* %52, align 1
  br label %107

53:                                               ; preds = %36
  %54 = load i32, i32* %2, align 4
  %55 = sext i32 %54 to i64
  %56 = getelementptr inbounds [1000 x [260 x i8]], [1000 x [260 x i8]]* %5, i64 0, i64 %55
  %57 = load i32, i32* %4, align 4
  %58 = sext i32 %57 to i64
  %59 = getelementptr inbounds [260 x i8], [260 x i8]* %56, i64 0, i64 %58
  %60 = load i8, i8* %59, align 1
  %61 = sext i8 %60 to i32
  %62 = icmp eq i32 %61, 84
  br i1 %62, label %63, label %70

63:                                               ; preds = %53
  %64 = load i32, i32* %2, align 4
  %65 = sext i32 %64 to i64
  %66 = getelementptr inbounds [1000 x [260 x i8]], [1000 x [260 x i8]]* %6, i64 0, i64 %65
  %67 = load i32, i32* %4, align 4
  %68 = sext i32 %67 to i64
  %69 = getelementptr inbounds [260 x i8], [260 x i8]* %66, i64 0, i64 %68
  store i8 65, i8* %69, align 1
  br label %106

70:                                               ; preds = %53
  %71 = load i32, i32* %2, align 4
  %72 = sext i32 %71 to i64
  %73 = getelementptr inbounds [1000 x [260 x i8]], [1000 x [260 x i8]]* %5, i64 0, i64 %72
  %74 = load i32, i32* %4, align 4
  %75 = sext i32 %74 to i64
  %76 = getelementptr inbounds [260 x i8], [260 x i8]* %73, i64 0, i64 %75
  %77 = load i8, i8* %76, align 1
  %78 = sext i8 %77 to i32
  %79 = icmp eq i32 %78, 71
  br i1 %79, label %80, label %87

80:                                               ; preds = %70
  %81 = load i32, i32* %2, align 4
  %82 = sext i32 %81 to i64
  %83 = getelementptr inbounds [1000 x [260 x i8]], [1000 x [260 x i8]]* %6, i64 0, i64 %82
  %84 = load i32, i32* %4, align 4
  %85 = sext i32 %84 to i64
  %86 = getelementptr inbounds [260 x i8], [260 x i8]* %83, i64 0, i64 %85
  store i8 67, i8* %86, align 1
  br label %105

87:                                               ; preds = %70
  %88 = load i32, i32* %2, align 4
  %89 = sext i32 %88 to i64
  %90 = getelementptr inbounds [1000 x [260 x i8]], [1000 x [260 x i8]]* %5, i64 0, i64 %89
  %91 = load i32, i32* %4, align 4
  %92 = sext i32 %91 to i64
  %93 = getelementptr inbounds [260 x i8], [260 x i8]* %90, i64 0, i64 %92
  %94 = load i8, i8* %93, align 1
  %95 = sext i8 %94 to i32
  %96 = icmp eq i32 %95, 67
  br i1 %96, label %97, label %104

97:                                               ; preds = %87
  %98 = load i32, i32* %2, align 4
  %99 = sext i32 %98 to i64
  %100 = getelementptr inbounds [1000 x [260 x i8]], [1000 x [260 x i8]]* %6, i64 0, i64 %99
  %101 = load i32, i32* %4, align 4
  %102 = sext i32 %101 to i64
  %103 = getelementptr inbounds [260 x i8], [260 x i8]* %100, i64 0, i64 %102
  store i8 71, i8* %103, align 1
  br label %104

104:                                              ; preds = %97, %87
  br label %105

105:                                              ; preds = %104, %80
  br label %106

106:                                              ; preds = %105, %63
  br label %107

107:                                              ; preds = %106, %46
  br label %108

108:                                              ; preds = %107
  %109 = load i32, i32* %4, align 4
  %110 = add nsw i32 %109, 1
  store i32 %110, i32* %4, align 4
  br label %26

111:                                              ; preds = %26
  br label %112

112:                                              ; preds = %111
  %113 = load i32, i32* %2, align 4
  %114 = add nsw i32 %113, 1
  store i32 %114, i32* %2, align 4
  br label %21

115:                                              ; preds = %21
  store i32 0, i32* %2, align 4
  br label %116

116:                                              ; preds = %126, %115
  %117 = load i32, i32* %2, align 4
  %118 = load i32, i32* %3, align 4
  %119 = icmp slt i32 %117, %118
  br i1 %119, label %120, label %129

120:                                              ; preds = %116
  %121 = load i32, i32* %2, align 4
  %122 = sext i32 %121 to i64
  %123 = getelementptr inbounds [1000 x [260 x i8]], [1000 x [260 x i8]]* %6, i64 0, i64 %122
  %124 = getelementptr inbounds [260 x i8], [260 x i8]* %123, i64 0, i64 0
  %125 = call i32 (i8*, ...) @printf(i8* getelementptr inbounds ([4 x i8], [4 x i8]* @.str.2, i64 0, i64 0), i8* %124)
  br label %126

126:                                              ; preds = %120
  %127 = load i32, i32* %2, align 4
  %128 = add nsw i32 %127, 1
  store i32 %128, i32* %2, align 4
  br label %116

129:                                              ; preds = %116
  ret i32 0
}

declare dso_local i32 @__isoc99_scanf(i8*, ...) #1

declare dso_local i32 @printf(i8*, ...) #1


!llvm.module.flags = !{!0}
!llvm.ident = !{!1}

!0 = !{i32 1, !"wchar_size", i32 4}
!1 = !{!"clang version 10.0.0-4ubuntu1 "}
